; ModuleID = 'source-C-CXX/2/1998.c'
source_filename = "source-C-CXX/2/1998.c"
target datalayout = "e-m:e-p270:32:32-p271:32:32-p272:64:64-i64:64-f80:128-n8:16:32:64-S128"
target triple = "x86_64-pc-linux-gnu"

@.str = private unnamed_addr constant [3 x i8] c"%d\00", align 1
@.str.1 = private unnamed_addr constant [4 x i8] c"yes\00", align 1
@.str.2 = private unnamed_addr constant [3 x i8] c"no\00", align 1

; Function Attrs: nofree nounwind sspstrong uwtable
define dso_local i32 @main() local_unnamed_addr #0 {
  %1 = alloca [1000 x i32], align 16
  %2 = alloca i32, align 4
  %3 = alloca i32, align 4
  %4 = bitcast [1000 x i32]* %1 to i8*
  call void @llvm.lifetime.start.p0i8(i64 4000, i8* nonnull %4) #3
  %5 = bitcast i32* %2 to i8*
  call void @llvm.lifetime.start.p0i8(i64 4, i8* nonnull %5) #3
  %6 = bitcast i32* %3 to i8*
  call void @llvm.lifetime.start.p0i8(i64 4, i8* nonnull %6) #3
  %7 = call i32 (i8*, ...) @__isoc99_scanf(i8* getelementptr inbounds ([3 x i8], [3 x i8]* @.str, i64 0, i64 0), i32* nonnull %2)
  %8 = call i32 (i8*, ...) @__isoc99_scanf(i8* getelementptr inbounds ([3 x i8], [3 x i8]* @.str, i64 0, i64 0), i32* nonnull %3)
  %9 = load i32, i32* %2, align 4, !tbaa !5
  %10 = icmp sgt i32 %9, 0
  br i1 %10, label %19, label %47

11:                                               ; preds = %19
  %12 = load i32, i32* %3, align 4
  %13 = icmp sgt i32 %24, 1
  br i1 %13, label %14, label %47

14:                                               ; preds = %11
  %15 = zext i32 %24 to i64
  %16 = add nsw i32 %24, -1
  %17 = zext i32 %16 to i64
  %18 = zext i32 %24 to i64
  br label %30

19:                                               ; preds = %0, %19
  %20 = phi i64 [ %23, %19 ], [ 0, %0 ]
  %21 = getelementptr inbounds [1000 x i32], [1000 x i32]* %1, i64 0, i64 %20
  %22 = call i32 (i8*, ...) @__isoc99_scanf(i8* getelementptr inbounds ([3 x i8], [3 x i8]* @.str, i64 0, i64 0), i32* nonnull %21)
  %23 = add nuw nsw i64 %20, 1
  %24 = load i32, i32* %2, align 4, !tbaa !5
  %25 = sext i32 %24 to i64
  %26 = icmp slt i64 %23, %25
  br i1 %26, label %19, label %11, !llvm.loop !9

27:                                               ; preds = %38, %30
  %28 = add nuw nsw i64 %32, 1
  %29 = icmp eq i64 %33, %17
  br i1 %29, label %47, label %30, !llvm.loop !11

30:                                               ; preds = %14, %27
  %31 = phi i64 [ 0, %14 ], [ %33, %27 ]
  %32 = phi i64 [ 1, %14 ], [ %28, %27 ]
  %33 = add nuw nsw i64 %31, 1
  %34 = icmp ult i64 %33, %15
  br i1 %34, label %35, label %27

35:                                               ; preds = %30
  %36 = getelementptr inbounds [1000 x i32], [1000 x i32]* %1, i64 0, i64 %31
  %37 = load i32, i32* %36, align 4, !tbaa !5
  br label %40

38:                                               ; preds = %40
  %39 = icmp eq i64 %46, %18
  br i1 %39, label %27, label %40, !llvm.loop !12

40:                                               ; preds = %35, %38
  %41 = phi i64 [ %32, %35 ], [ %46, %38 ]
  %42 = getelementptr inbounds [1000 x i32], [1000 x i32]* %1, i64 0, i64 %41
  %43 = load i32, i32* %42, align 4, !tbaa !5
  %44 = add nsw i32 %43, %37
  %45 = icmp eq i32 %44, %12
  %46 = add nuw nsw i64 %41, 1
  br i1 %45, label %47, label %38

47:                                               ; preds = %27, %40, %11, %0
  %48 = phi i8* [ getelementptr inbounds ([3 x i8], [3 x i8]* @.str.2, i64 0, i64 0), %0 ], [ getelementptr inbounds ([3 x i8], [3 x i8]* @.str.2, i64 0, i64 0), %11 ], [ getelementptr inbounds ([4 x i8], [4 x i8]* @.str.1, i64 0, i64 0), %40 ], [ getelementptr inbounds ([3 x i8], [3 x i8]* @.str.2, i64 0, i64 0), %27 ]
  %49 = call i32 (i8*, ...) @printf(i8* nonnull dereferenceable(1) %48)
  call void @llvm.lifetime.end.p0i8(i64 4, i8* nonnull %6) #3
  call void @llvm.lifetime.end.p0i8(i64 4, i8* nonnull %5) #3
  call void @llvm.lifetime.end.p0i8(i64 4000, i8* nonnull %4) #3
  ret i32 0
}

; Function Attrs: argmemonly mustprogress nofree nosync nounwind willreturn
declare void @llvm.lifetime.start.p0i8(i64 immarg, i8* nocapture) #1

; Function Attrs: nofree nounwind
declare noundef i32 @__isoc99_scanf(i8* nocapture noundef readonly, ...) local_unnamed_addr #2

; Function Attrs: nofree nounwind
declare noundef i32 @printf(i8* nocapture noundef readonly, ...) local_unnamed_addr #2

; Function Attrs: argmemonly mustprogress nofree nosync nounwind willreturn
declare void @llvm.lifetime.end.p0i8(i64 immarg, i8* nocapture) #1


!llvm.module.flags = !{!0, !1, !2, !3}
!llvm.ident = !{!4}

!0 = !{i32 1, !"wchar_size", i32 4}
!1 = !{i32 7, !"PIC Level", i32 2}
!2 = !{i32 7, !"PIE Level", i32 2}
!3 = !{i32 7, !"uwtable", i32 1}
!4 = !{!"clang version 13.0.0"}
!5 = !{!6, !6, i64 0}
!6 = !{!"int", !7, i64 0}
!7 = !{!"omnipotent char", !8, i64 0}
!8 = !{!"Simple C/C++ TBAA"}
!9 = distinct !{!9, !10}
!10 = !{!"llvm.loop.mustprogress"}
!11 = distinct !{!11, !10}
!12 = distinct !{!12, !10}
